; Function Attrs: mustprogress uwtable
define void @_ZNK32pxrInternal_v0_24__pxrReserved__13HdBufferArray8GetRangeEm(ptr dead_on_unwind noalias writable writeonly sret(%"class.std::weak_ptr.0") align 8 captures(none) initializes((0, 16)) %0, ptr noundef nonnull readonly align 8 captures(none) dereferenceable(140) %1, i64 noundef %2) local_unnamed_addr #6 align 2 personality ptr @__gxx_personality_v0 {
  %4 = alloca %"class.pxrInternal_v0_24__pxrReserved__::TfCallContext", align 8
  %5 = getelementptr inbounds nuw i8, ptr %1, i64 56
  %6 = load atomic i64, ptr %5 seq_cst, align 8
  %7 = icmp ult i64 %2, %6
  br i1 %7, label %14, label %8

8:                                                ; preds = %3
  store ptr @.str, ptr %4, align 8
  %9 = getelementptr inbounds nuw i8, ptr %4, i64 8
  store ptr @__func__._ZNK32pxrInternal_v0_24__pxrReserved__13HdBufferArray8GetRangeEm, ptr %9, align 8
  %10 = getelementptr inbounds nuw i8, ptr %4, i64 16
  store i64 116, ptr %10, align 8
  %11 = getelementptr inbounds nuw i8, ptr %4, i64 24
  store ptr @__PRETTY_FUNCTION__._ZNK32pxrInternal_v0_24__pxrReserved__13HdBufferArray8GetRangeEm, ptr %11, align 8
  %12 = getelementptr inbounds nuw i8, ptr %4, i64 32
  store i8 0, ptr %12, align 8
  %13 = call noundef zeroext i1 @_ZN32pxrInternal_v0_24__pxrReserved__21Tf_FailedVerifyHelperERKNS_13TfCallContextEPKcS4_(ptr noundef nonnull align 8 dereferenceable(33) %4, ptr noundef nonnull @.str.1, ptr noundef null)
  br label %14

14:                                               ; preds = %3, %8
  %15 = getelementptr inbounds nuw i8, ptr %1, i64 32
  %16 = load ptr, ptr %15, align 8
  %17 = getelementptr inbounds %"class.std::weak_ptr.0", ptr %16, i64 %2
  %18 = load ptr, ptr %17, align 8
  store ptr %18, ptr %0, align 8
  %19 = getelementptr inbounds nuw i8, ptr %0, i64 8
  %20 = getelementptr inbounds nuw i8, ptr %17, i64 8
  %21 = load ptr, ptr %20, align 8
  store ptr %21, ptr %19, align 8
  %.not.i.i.i = icmp eq ptr %21, null
  br i1 %.not.i.i.i, label %_ZNSt8weak_ptrIN32pxrInternal_v0_24__pxrReserved__18HdBufferArrayRangeEEC2ERKS2_.exit, label %22

22:                                               ; preds = %14
  %23 = getelementptr inbounds nuw i8, ptr %21, i64 12
  %24 = load i8, ptr @__libc_single_threaded, align 1
  %.not.i.i.i.i = icmp eq i8 %24, 0
  br i1 %.not.i.i.i.i, label %28, label %25

25:                                               ; preds = %22
  %26 = load i32, ptr %23, align 4
  %27 = add nsw i32 %26, 1
  store i32 %27, ptr %23, align 4
  br label %_ZNSt8weak_ptrIN32pxrInternal_v0_24__pxrReserved__18HdBufferArrayRangeEEC2ERKS2_.exit

28:                                               ; preds = %22
  %29 = atomicrmw volatile add ptr %23, i32 1 acq_rel, align 4
  br label %_ZNSt8weak_ptrIN32pxrInternal_v0_24__pxrReserved__18HdBufferArrayRangeEEC2ERKS2_.exit

_ZNSt8weak_ptrIN32pxrInternal_v0_24__pxrReserved__18HdBufferArrayRangeEEC2ERKS2_.exit: ; preds = %14, %25, %28
  ret void
}